target datalayout = "e-m:e-p270:32:32-p271:32:32-p272:64:64-i64:64-i128:128-f80:128-n8:16:32:64-S128"
target triple = "x86_64-pc-linux-gnu"

%struct.cJSON = type { ptr, ptr, ptr, i32, ptr, i32, double, ptr }

; Function Attrs: nounwind sspstrong uwtable
define double @cJSON_SetNumberHelper(ptr noundef %0, double noundef %1) #0 {
  %3 = alloca ptr, align 8
  %4 = alloca double, align 8
  store ptr %0, ptr %3, align 8, !tbaa !11
  store double %1, ptr %4, align 8, !tbaa !31
  %5 = load double, ptr %4, align 8, !tbaa !31
  %6 = fcmp oge double %5, 0x41DFFFFFFFC00000
  br i1 %6, label %7, label %10

7:                                                ; preds = %2
  %8 = load ptr, ptr %3, align 8, !tbaa !11
  %9 = getelementptr inbounds nuw %struct.cJSON, ptr %8, i32 0, i32 5
  store i32 2147483647, ptr %9, align 8, !tbaa !32
  br label %22

10:                                               ; preds = %2
  %11 = load double, ptr %4, align 8, !tbaa !31
  %12 = fcmp ole double %11, 0xC1E0000000000000
  br i1 %12, label %13, label %16

13:                                               ; preds = %10
  %14 = load ptr, ptr %3, align 8, !tbaa !11
  %15 = getelementptr inbounds nuw %struct.cJSON, ptr %14, i32 0, i32 5
  store i32 -2147483648, ptr %15, align 8, !tbaa !32
  br label %21

16:                                               ; preds = %10
  %17 = load double, ptr %4, align 8, !tbaa !31
  %18 = fptosi double %17 to i32
  %19 = load ptr, ptr %3, align 8, !tbaa !11
  %20 = getelementptr inbounds nuw %struct.cJSON, ptr %19, i32 0, i32 5
  store i32 %18, ptr %20, align 8, !tbaa !32
  br label %21

21:                                               ; preds = %16, %13
  br label %22

22:                                               ; preds = %21, %7
  %23 = load double, ptr %4, align 8, !tbaa !31
  %24 = load ptr, ptr %3, align 8, !tbaa !11
  %25 = getelementptr inbounds nuw %struct.cJSON, ptr %24, i32 0, i32 6
  store double %23, ptr %25, align 8, !tbaa !18
  ret double %23
}