; Function Attrs: mustprogress nofree norecurse nosync nounwind sspstrong willreturn memory(argmem: write) uwtable
define noundef double @cJSON_SetNumberHelper(ptr noundef writeonly captures(none) initializes((40, 44), (48, 56)) %0, double noundef returned %1) local_unnamed_addr #10 {
  %3 = fcmp ult double %1, 0x41DFFFFFFFC00000
  br i1 %3, label %4, label %8

4:                                                ; preds = %2
  %5 = fcmp ugt double %1, 0xC1E0000000000000
  br i1 %5, label %6, label %8

6:                                                ; preds = %4
  %7 = fptosi double %1 to i32
  br label %8

8:                                                ; preds = %4, %2, %6
  %.sink = phi i32 [ %7, %6 ], [ 2147483647, %2 ], [ -2147483648, %4 ]
  %9 = getelementptr inbounds nuw i8, ptr %0, i64 40
  store i32 %.sink, ptr %9, align 8, !tbaa !27
  %10 = getelementptr inbounds nuw i8, ptr %0, i64 48
  store double %1, ptr %10, align 8, !tbaa !17
  ret double %1
}